target datalayout = "e-m:e-p270:32:32-p271:32:32-p272:64:64-i64:64-i128:128-f80:128-n8:16:32:64-S128"
target triple = "x86_64-pc-linux-gnu"

%struct.Node = type { i16, i16, i32 }

; Function Attrs: nounwind uwtable
define internal i32 @vp6_huff_cmp(ptr noundef %0, ptr noundef %1) #3 {
  %3 = alloca ptr, align 8
  %4 = alloca ptr, align 8
  %5 = alloca ptr, align 8
  %6 = alloca ptr, align 8
  store ptr %0, ptr %3, align 8, !tbaa !79
  store ptr %1, ptr %4, align 8, !tbaa !79
  call void @llvm.lifetime.start.p0(i64 8, ptr %5) #9
  %7 = load ptr, ptr %3, align 8, !tbaa !79
  store ptr %7, ptr %5, align 8, !tbaa !149
  call void @llvm.lifetime.start.p0(i64 8, ptr %6) #9
  %8 = load ptr, ptr %4, align 8, !tbaa !79
  store ptr %8, ptr %6, align 8, !tbaa !149
  %9 = load ptr, ptr %5, align 8, !tbaa !149
  %10 = getelementptr inbounds nuw %struct.Node, ptr %9, i32 0, i32 2
  %11 = load i32, ptr %10, align 4, !tbaa !151
  %12 = load ptr, ptr %6, align 8, !tbaa !149
  %13 = getelementptr inbounds nuw %struct.Node, ptr %12, i32 0, i32 2
  %14 = load i32, ptr %13, align 4, !tbaa !151
  %15 = sub i32 %11, %14
  %16 = mul i32 %15, 16
  %17 = load ptr, ptr %6, align 8, !tbaa !149
  %18 = getelementptr inbounds nuw %struct.Node, ptr %17, i32 0, i32 0
  %19 = load i16, ptr %18, align 4, !tbaa !154
  %20 = sext i16 %19 to i32
  %21 = load ptr, ptr %5, align 8, !tbaa !149
  %22 = getelementptr inbounds nuw %struct.Node, ptr %21, i32 0, i32 0
  %23 = load i16, ptr %22, align 4, !tbaa !154
  %24 = sext i16 %23 to i32
  %25 = sub nsw i32 %20, %24
  %26 = add i32 %16, %25
  call void @llvm.lifetime.end.p0(i64 8, ptr %6) #9
  call void @llvm.lifetime.end.p0(i64 8, ptr %5) #9
  ret i32 %26
}